; Function Attrs: mustprogress nounwind uwtable
define hidden noundef zeroext i1 @_ZN11ClassLoader28add_to_app_classpath_entriesEP10JavaThreadP14ClassPathEntryb(ptr noundef %0, ptr noundef %1, i1 noundef zeroext %2) local_unnamed_addr #0 align 2 {
  %4 = load ptr, ptr @_ZN11ClassLoader22_app_classpath_entriesE, align 8
  %5 = icmp ne ptr %4, null
  %or.cond = select i1 %2, i1 %5, i1 false
  br i1 %or.cond, label %.preheader, label %19

.preheader:                                       ; preds = %3, %16
  %.0 = phi ptr [ %18, %16 ], [ %4, %3 ]
  %6 = load ptr, ptr %.0, align 8
  %7 = getelementptr inbounds i8, ptr %6, i64 40
  %8 = load ptr, ptr %7, align 8
  %9 = tail call noundef ptr %8(ptr noundef nonnull align 8 dereferenceable(16) %.0) #20
  %10 = load ptr, ptr %1, align 8
  %11 = getelementptr inbounds i8, ptr %10, i64 40
  %12 = load ptr, ptr %11, align 8
  %13 = tail call noundef ptr %12(ptr noundef nonnull align 8 dereferenceable(16) %1) #20
  %14 = tail call i32 @strcmp(ptr noundef nonnull dereferenceable(1) %9, ptr noundef nonnull dereferenceable(1) %13) #21
  %15 = icmp eq i32 %14, 0
  br i1 %15, label %.loopexit, label %16

16:                                               ; preds = %.preheader
  %17 = getelementptr inbounds i8, ptr %.0, i64 8
  %18 = load volatile ptr, ptr %17, align 8
  tail call void asm sideeffect "", "~{memory},~{dirflag},~{fpsr},~{flags}"() #20, !srcloc !9
  %.old1.not = icmp eq ptr %18, null
  br i1 %.old1.not, label %thread-pre-split, label %.preheader

thread-pre-split:                                 ; preds = %16
  %.pr = load ptr, ptr @_ZN11ClassLoader22_app_classpath_entriesE, align 8
  br label %19

19:                                               ; preds = %thread-pre-split, %3
  %20 = phi ptr [ %.pr, %thread-pre-split ], [ %4, %3 ]
  %21 = icmp eq ptr %20, null
  br i1 %21, label %22, label %23

22:                                               ; preds = %19
  store ptr %1, ptr @_ZN11ClassLoader22_app_classpath_entriesE, align 8
  br label %26

23:                                               ; preds = %19
  %24 = load ptr, ptr @_ZN11ClassLoader25_last_app_classpath_entryE, align 8
  %25 = getelementptr inbounds i8, ptr %24, i64 8
  tail call void asm sideeffect "", "~{memory},~{dirflag},~{fpsr},~{flags}"() #20, !srcloc !9
  store volatile ptr %1, ptr %25, align 8
  br label %26

26:                                               ; preds = %23, %22
  store ptr %1, ptr @_ZN11ClassLoader25_last_app_classpath_entryE, align 8
  %27 = load ptr, ptr %1, align 8
  %28 = getelementptr inbounds i8, ptr %27, i64 24
  %29 = load ptr, ptr %28, align 8
  %30 = tail call noundef zeroext i1 %29(ptr noundef nonnull align 8 dereferenceable(16) %1) #20
  br i1 %30, label %31, label %.loopexit

31:                                               ; preds = %26
  tail call void @_ZN14ClassLoaderExt20process_jar_manifestEP10JavaThreadP14ClassPathEntry(ptr noundef %0, ptr noundef nonnull %1) #20
  br label %.loopexit

.loopexit:                                        ; preds = %.preheader, %26, %31
  %.012 = phi i1 [ true, %31 ], [ true, %26 ], [ false, %.preheader ]
  ret i1 %.012
}